; ModuleID = '14/1435.c'
source_filename = "14/1435.c"
target datalayout = "e-m:e-p270:32:32-p271:32:32-p272:64:64-i64:64-f80:128-n8:16:32:64-S128"
target triple = "x86_64-pc-linux-gnu"

%struct.score = type { i32, i32, i32 }

@.str = private unnamed_addr constant [3 x i8] c"%d\00", align 1
@student = common dso_local global [100000 x %struct.score] zeroinitializer, align 16
@.str.1 = private unnamed_addr constant [7 x i8] c"%d %d\0A\00", align 1
@.str.2 = private unnamed_addr constant [6 x i8] c"%d %d\00", align 1

; Function Attrs: noinline nounwind uwtable
define dso_local i32 @max(i32 %0, i32 %1) #0 {
  %3 = alloca i32, align 4
  %4 = alloca i32, align 4
  store i32 %0, i32* %3, align 4
  store i32 %1, i32* %4, align 4
  %5 = load i32, i32* %3, align 4
  %6 = load i32, i32* %4, align 4
  %7 = icmp sgt i32 %5, %6
  br i1 %7, label %8, label %10

8:                                                ; preds = %2
  %9 = load i32, i32* %3, align 4
  br label %12

10:                                               ; preds = %2
  %11 = load i32, i32* %4, align 4
  br label %12

12:                                               ; preds = %10, %8
  %13 = phi i32 [ %9, %8 ], [ %11, %10 ]
  ret i32 %13
}

; Function Attrs: noinline nounwind uwtable
define dso_local i32 @min(i32 %0, i32 %1) #0 {
  %3 = alloca i32, align 4
  %4 = alloca i32, align 4
  store i32 %0, i32* %3, align 4
  store i32 %1, i32* %4, align 4
  %5 = load i32, i32* %3, align 4
  %6 = load i32, i32* %4, align 4
  %7 = icmp slt i32 %5, %6
  br i1 %7, label %8, label %10

8:                                                ; preds = %2
  %9 = load i32, i32* %3, align 4
  br label %12

10:                                               ; preds = %2
  %11 = load i32, i32* %4, align 4
  br label %12

12:                                               ; preds = %10, %8
  %13 = phi i32 [ %9, %8 ], [ %11, %10 ]
  ret i32 %13
}

; Function Attrs: noinline nounwind uwtable
define dso_local i32 @main() #0 {
  %1 = alloca i32, align 4
  %2 = alloca [100000 x i32], align 16
  %3 = alloca i32, align 4
  %4 = alloca i32, align 4
  %5 = alloca i32, align 4
  %6 = alloca i32, align 4
  %7 = alloca i32, align 4
  %8 = alloca i32, align 4
  %9 = alloca i32, align 4
  %10 = alloca i32, align 4
  store i32 0, i32* %1, align 4
  store i32 0, i32* %5, align 4
  store i32 0, i32* %6, align 4
  store i32 0, i32* %7, align 4
  store i32 0, i32* %8, align 4
  store i32 0, i32* %9, align 4
  store i32 0, i32* %10, align 4
  %11 = call i32 (i8*, ...) @__isoc99_scanf(i8* getelementptr inbounds ([3 x i8], [3 x i8]* @.str, i64 0, i64 0), i32* %3)
  store i32 0, i32* %4, align 4
  br label %12

12:                                               ; preds = %173, %0
  %13 = load i32, i32* %4, align 4
  %14 = load i32, i32* %3, align 4
  %15 = icmp slt i32 %13, %14
  br i1 %15, label %16, label %176

16:                                               ; preds = %12
  %17 = load i32, i32* %4, align 4
  %18 = sext i32 %17 to i64
  %19 = getelementptr inbounds [100000 x %struct.score], [100000 x %struct.score]* @student, i64 0, i64 %18
  %20 = getelementptr inbounds %struct.score, %struct.score* %19, i32 0, i32 0
  %21 = call i32 (i8*, ...) @__isoc99_scanf(i8* getelementptr inbounds ([3 x i8], [3 x i8]* @.str, i64 0, i64 0), i32* %20)
  %22 = load i32, i32* %4, align 4
  %23 = sext i32 %22 to i64
  %24 = getelementptr inbounds [100000 x %struct.score], [100000 x %struct.score]* @student, i64 0, i64 %23
  %25 = getelementptr inbounds %struct.score, %struct.score* %24, i32 0, i32 1
  %26 = call i32 (i8*, ...) @__isoc99_scanf(i8* getelementptr inbounds ([3 x i8], [3 x i8]* @.str, i64 0, i64 0), i32* %25)
  %27 = load i32, i32* %4, align 4
  %28 = sext i32 %27 to i64
  %29 = getelementptr inbounds [100000 x %struct.score], [100000 x %struct.score]* @student, i64 0, i64 %28
  %30 = getelementptr inbounds %struct.score, %struct.score* %29, i32 0, i32 2
  %31 = call i32 (i8*, ...) @__isoc99_scanf(i8* getelementptr inbounds ([3 x i8], [3 x i8]* @.str, i64 0, i64 0), i32* %30)
  %32 = load i32, i32* %4, align 4
  %33 = sext i32 %32 to i64
  %34 = getelementptr inbounds [100000 x %struct.score], [100000 x %struct.score]* @student, i64 0, i64 %33
  %35 = getelementptr inbounds %struct.score, %struct.score* %34, i32 0, i32 1
  %36 = load i32, i32* %35, align 4
  %37 = load i32, i32* %4, align 4
  %38 = sext i32 %37 to i64
  %39 = getelementptr inbounds [100000 x %struct.score], [100000 x %struct.score]* @student, i64 0, i64 %38
  %40 = getelementptr inbounds %struct.score, %struct.score* %39, i32 0, i32 2
  %41 = load i32, i32* %40, align 4
  %42 = add nsw i32 %36, %41
  %43 = load i32, i32* %4, align 4
  %44 = sext i32 %43 to i64
  %45 = getelementptr inbounds [100000 x i32], [100000 x i32]* %2, i64 0, i64 %44
  store i32 %42, i32* %45, align 4
  %46 = load i32, i32* %4, align 4
  %47 = sext i32 %46 to i64
  %48 = getelementptr inbounds [100000 x i32], [100000 x i32]* %2, i64 0, i64 %47
  %49 = load i32, i32* %48, align 4
  %50 = load i32, i32* %5, align 4
  %51 = icmp sge i32 %49, %50
  br i1 %51, label %52, label %87

52:                                               ; preds = %16
  %53 = load i32, i32* %4, align 4
  %54 = sext i32 %53 to i64
  %55 = getelementptr inbounds [100000 x i32], [100000 x i32]* %2, i64 0, i64 %54
  %56 = load i32, i32* %55, align 4
  %57 = load i32, i32* %5, align 4
  %58 = icmp eq i32 %56, %57
  br i1 %58, label %59, label %75

59:                                               ; preds = %52
  %60 = load i32, i32* %6, align 4
  store i32 %60, i32* %7, align 4
  %61 = load i32, i32* %5, align 4
  store i32 %61, i32* %6, align 4
  %62 = load i32, i32* %4, align 4
  %63 = sext i32 %62 to i64
  %64 = getelementptr inbounds [100000 x i32], [100000 x i32]* %2, i64 0, i64 %63
  %65 = load i32, i32* %64, align 4
  store i32 %65, i32* %5, align 4
  %66 = load i32, i32* %9, align 4
  store i32 %66, i32* %10, align 4
  %67 = load i32, i32* %8, align 4
  %68 = load i32, i32* %4, align 4
  %69 = add nsw i32 %68, 1
  %70 = call i32 @max(i32 %67, i32 %69)
  store i32 %70, i32* %9, align 4
  %71 = load i32, i32* %8, align 4
  %72 = load i32, i32* %4, align 4
  %73 = add nsw i32 %72, 1
  %74 = call i32 @min(i32 %71, i32 %73)
  store i32 %74, i32* %8, align 4
  br label %86

75:                                               ; preds = %52
  %76 = load i32, i32* %6, align 4
  store i32 %76, i32* %7, align 4
  %77 = load i32, i32* %5, align 4
  store i32 %77, i32* %6, align 4
  %78 = load i32, i32* %4, align 4
  %79 = sext i32 %78 to i64
  %80 = getelementptr inbounds [100000 x i32], [100000 x i32]* %2, i64 0, i64 %79
  %81 = load i32, i32* %80, align 4
  store i32 %81, i32* %5, align 4
  %82 = load i32, i32* %9, align 4
  store i32 %82, i32* %10, align 4
  %83 = load i32, i32* %8, align 4
  store i32 %83, i32* %9, align 4
  %84 = load i32, i32* %4, align 4
  %85 = add nsw i32 %84, 1
  store i32 %85, i32* %8, align 4
  br label %86

86:                                               ; preds = %75, %59
  br label %172

87:                                               ; preds = %16
  %88 = load i32, i32* %4, align 4
  %89 = sext i32 %88 to i64
  %90 = getelementptr inbounds [100000 x i32], [100000 x i32]* %2, i64 0, i64 %89
  %91 = load i32, i32* %90, align 4
  %92 = load i32, i32* %5, align 4
  %93 = icmp slt i32 %91, %92
  br i1 %93, label %94, label %132

94:                                               ; preds = %87
  %95 = load i32, i32* %4, align 4
  %96 = sext i32 %95 to i64
  %97 = getelementptr inbounds [100000 x i32], [100000 x i32]* %2, i64 0, i64 %96
  %98 = load i32, i32* %97, align 4
  %99 = load i32, i32* %6, align 4
  %100 = icmp sge i32 %98, %99
  br i1 %100, label %101, label %132

101:                                              ; preds = %94
  %102 = load i32, i32* %4, align 4
  %103 = sext i32 %102 to i64
  %104 = getelementptr inbounds [100000 x i32], [100000 x i32]* %2, i64 0, i64 %103
  %105 = load i32, i32* %104, align 4
  %106 = load i32, i32* %6, align 4
  %107 = icmp eq i32 %105, %106
  br i1 %107, label %108, label %122

108:                                              ; preds = %101
  %109 = load i32, i32* %6, align 4
  store i32 %109, i32* %7, align 4
  %110 = load i32, i32* %4, align 4
  %111 = sext i32 %110 to i64
  %112 = getelementptr inbounds [100000 x i32], [100000 x i32]* %2, i64 0, i64 %111
  %113 = load i32, i32* %112, align 4
  store i32 %113, i32* %6, align 4
  %114 = load i32, i32* %9, align 4
  %115 = load i32, i32* %4, align 4
  %116 = add nsw i32 %115, 1
  %117 = call i32 @max(i32 %114, i32 %116)
  store i32 %117, i32* %10, align 4
  %118 = load i32, i32* %9, align 4
  %119 = load i32, i32* %4, align 4
  %120 = add nsw i32 %119, 1
  %121 = call i32 @min(i32 %118, i32 %120)
  store i32 %121, i32* %9, align 4
  br label %131

122:                                              ; preds = %101
  %123 = load i32, i32* %6, align 4
  store i32 %123, i32* %7, align 4
  %124 = load i32, i32* %4, align 4
  %125 = sext i32 %124 to i64
  %126 = getelementptr inbounds [100000 x i32], [100000 x i32]* %2, i64 0, i64 %125
  %127 = load i32, i32* %126, align 4
  store i32 %127, i32* %6, align 4
  %128 = load i32, i32* %9, align 4
  store i32 %128, i32* %10, align 4
  %129 = load i32, i32* %4, align 4
  %130 = add nsw i32 %129, 1
  store i32 %130, i32* %9, align 4
  br label %131

131:                                              ; preds = %122, %108
  br label %171

132:                                              ; preds = %94, %87
  %133 = load i32, i32* %4, align 4
  %134 = sext i32 %133 to i64
  %135 = getelementptr inbounds [100000 x i32], [100000 x i32]* %2, i64 0, i64 %134
  %136 = load i32, i32* %135, align 4
  %137 = load i32, i32* %6, align 4
  %138 = icmp slt i32 %136, %137
  br i1 %138, label %139, label %170

139:                                              ; preds = %132
  %140 = load i32, i32* %4, align 4
  %141 = sext i32 %140 to i64
  %142 = getelementptr inbounds [100000 x i32], [100000 x i32]* %2, i64 0, i64 %141
  %143 = load i32, i32* %142, align 4
  %144 = load i32, i32* %7, align 4
  %145 = icmp sge i32 %143, %144
  br i1 %145, label %146, label %170

146:                                              ; preds = %139
  %147 = load i32, i32* %4, align 4
  %148 = sext i32 %147 to i64
  %149 = getelementptr inbounds [100000 x i32], [100000 x i32]* %2, i64 0, i64 %148
  %150 = load i32, i32* %149, align 4
  %151 = load i32, i32* %7, align 4
  %152 = icmp eq i32 %150, %151
  br i1 %152, label %153, label %162

153:                                              ; preds = %146
  %154 = load i32, i32* %4, align 4
  %155 = sext i32 %154 to i64
  %156 = getelementptr inbounds [100000 x i32], [100000 x i32]* %2, i64 0, i64 %155
  %157 = load i32, i32* %156, align 4
  store i32 %157, i32* %7, align 4
  %158 = load i32, i32* %4, align 4
  %159 = add nsw i32 %158, 1
  %160 = load i32, i32* %10, align 4
  %161 = call i32 @min(i32 %159, i32 %160)
  store i32 %161, i32* %10, align 4
  br label %169

162:                                              ; preds = %146
  %163 = load i32, i32* %4, align 4
  %164 = sext i32 %163 to i64
  %165 = getelementptr inbounds [100000 x i32], [100000 x i32]* %2, i64 0, i64 %164
  %166 = load i32, i32* %165, align 4
  store i32 %166, i32* %7, align 4
  %167 = load i32, i32* %4, align 4
  %168 = add nsw i32 %167, 1
  store i32 %168, i32* %10, align 4
  br label %169

169:                                              ; preds = %162, %153
  br label %170

170:                                              ; preds = %169, %139, %132
  br label %171

171:                                              ; preds = %170, %131
  br label %172

172:                                              ; preds = %171, %86
  br label %173

173:                                              ; preds = %172
  %174 = load i32, i32* %4, align 4
  %175 = add nsw i32 %174, 1
  store i32 %175, i32* %4, align 4
  br label %12

176:                                              ; preds = %12
  %177 = load i32, i32* %8, align 4
  %178 = load i32, i32* %5, align 4
  %179 = call i32 (i8*, ...) @printf(i8* getelementptr inbounds ([7 x i8], [7 x i8]* @.str.1, i64 0, i64 0), i32 %177, i32 %178)
  %180 = load i32, i32* %9, align 4
  %181 = load i32, i32* %6, align 4
  %182 = call i32 (i8*, ...) @printf(i8* getelementptr inbounds ([7 x i8], [7 x i8]* @.str.1, i64 0, i64 0), i32 %180, i32 %181)
  %183 = load i32, i32* %10, align 4
  %184 = load i32, i32* %7, align 4
  %185 = call i32 (i8*, ...) @printf(i8* getelementptr inbounds ([6 x i8], [6 x i8]* @.str.2, i64 0, i64 0), i32 %183, i32 %184)
  ret i32 0
}

declare dso_local i32 @__isoc99_scanf(i8*, ...) #1

declare dso_local i32 @printf(i8*, ...) #1


!llvm.module.flags = !{!0}
!llvm.ident = !{!1}

!0 = !{i32 1, !"wchar_size", i32 4}
!1 = !{!"clang version 10.0.0-4ubuntu1 "}
